target datalayout = "e-m:e-p270:32:32-p271:32:32-p272:64:64-i64:64-i128:128-f80:128-n8:16:32:64-S128"
target triple = "x86_64-pc-linux-gnu"

%struct.ggml_tensor = type { i32, ptr, [4 x i64], [4 x i64], i32, [16 x i32], i32, [10 x ptr], ptr, i64, ptr, [64 x i8], ptr, [8 x i8] }
%struct.ggml_backend = type { ptr, %struct.ggml_backend_i, ptr, ptr }
%struct.ggml_backend_i = type { ptr, ptr, ptr, ptr, ptr, ptr, ptr, ptr, ptr, ptr, ptr, ptr, ptr }

@.str = private unnamed_addr constant [123 x i8] c"generated/home/dtcxzyw/WorkSpace/Projects/compilers/llvm-opt-benchmark/bench/llama.cpp/llama.cpp/ggml/src/ggml-backend.cpp\00", align 1
@.str.1 = private unnamed_addr constant [23 x i8] c"GGML_ASSERT(%s) failed\00", align 1
@.str.4 = private unnamed_addr constant [47 x i8] c"tensor->data != NULL && \22tensor not allocated\22\00", align 1
@.str.6 = private unnamed_addr constant [68 x i8] c"offset + size <= ggml_nbytes(tensor) && \22tensor read out of bounds\22\00", align 1

; Function Attrs: mustprogress uwtable
define void @ggml_backend_tensor_get_async(ptr noundef %0, ptr noundef %1, ptr noundef %2, i64 noundef %3, i64 noundef %4) #0 {
  %6 = alloca ptr, align 8
  %7 = alloca ptr, align 8
  %8 = alloca ptr, align 8
  %9 = alloca i64, align 8
  %10 = alloca i64, align 8
  store ptr %0, ptr %6, align 8, !tbaa !56
  store ptr %1, ptr %7, align 8, !tbaa !28
  store ptr %2, ptr %8, align 8, !tbaa !15
  store i64 %3, ptr %9, align 8, !tbaa !12
  store i64 %4, ptr %10, align 8, !tbaa !12
  %11 = load ptr, ptr %7, align 8, !tbaa !28
  %12 = getelementptr inbounds nuw %struct.ggml_tensor, ptr %11, i32 0, i32 10
  %13 = load ptr, ptr %12, align 8, !tbaa !70
  %14 = icmp ne ptr %13, null
  br i1 %14, label %16, label %15

15:                                               ; preds = %5
  call void (ptr, i32, ptr, ...) @ggml_abort(ptr noundef @.str, i32 noundef 244, ptr noundef @.str.1, ptr noundef @.str.4) #18
  unreachable

16:                                               ; preds = %5
  %17 = load i64, ptr %9, align 8, !tbaa !12
  %18 = load i64, ptr %10, align 8, !tbaa !12
  %19 = add i64 %17, %18
  %20 = load ptr, ptr %7, align 8, !tbaa !28
  %21 = call i64 @ggml_nbytes(ptr noundef %20)
  %22 = icmp ule i64 %19, %21
  br i1 %22, label %24, label %23

23:                                               ; preds = %16
  call void (ptr, i32, ptr, ...) @ggml_abort(ptr noundef @.str, i32 noundef 245, ptr noundef @.str.1, ptr noundef @.str.6) #18
  unreachable

24:                                               ; preds = %16
  %25 = load ptr, ptr %6, align 8, !tbaa !56
  %26 = getelementptr inbounds nuw %struct.ggml_backend, ptr %25, i32 0, i32 1
  %27 = getelementptr inbounds nuw %struct.ggml_backend_i, ptr %26, i32 0, i32 3
  %28 = load ptr, ptr %27, align 8, !tbaa !73
  %29 = icmp eq ptr %28, null
  br i1 %29, label %30, label %35

30:                                               ; preds = %24
  %31 = load ptr, ptr %7, align 8, !tbaa !28
  %32 = load ptr, ptr %8, align 8, !tbaa !15
  %33 = load i64, ptr %9, align 8, !tbaa !12
  %34 = load i64, ptr %10, align 8, !tbaa !12
  call void @ggml_backend_tensor_get(ptr noundef %31, ptr noundef %32, i64 noundef %33, i64 noundef %34)
  br label %45

35:                                               ; preds = %24
  %36 = load ptr, ptr %6, align 8, !tbaa !56
  %37 = getelementptr inbounds nuw %struct.ggml_backend, ptr %36, i32 0, i32 1
  %38 = getelementptr inbounds nuw %struct.ggml_backend_i, ptr %37, i32 0, i32 3
  %39 = load ptr, ptr %38, align 8, !tbaa !73
  %40 = load ptr, ptr %6, align 8, !tbaa !56
  %41 = load ptr, ptr %7, align 8, !tbaa !28
  %42 = load ptr, ptr %8, align 8, !tbaa !15
  %43 = load i64, ptr %9, align 8, !tbaa !12
  %44 = load i64, ptr %10, align 8, !tbaa !12
  call void %39(ptr noundef %40, ptr noundef %41, ptr noundef %42, i64 noundef %43, i64 noundef %44)
  br label %45

45:                                               ; preds = %35, %30
  ret void
}