; Function Attrs: mustprogress uwtable
define void @ggml_backend_tensor_get_async(ptr noundef %0, ptr noundef %1, ptr noundef %2, i64 noundef %3, i64 noundef %4) local_unnamed_addr #0 {
  %6 = getelementptr inbounds nuw i8, ptr %1, i64 248
  %7 = load ptr, ptr %6, align 8, !tbaa !60
  %.not = icmp eq ptr %7, null
  br i1 %.not, label %8, label %9

8:                                                ; preds = %5
  tail call void (ptr, i32, ptr, ...) @ggml_abort(ptr noundef nonnull @.str, i32 noundef 244, ptr noundef nonnull @.str.1, ptr noundef nonnull @.str.4) #24
  unreachable

9:                                                ; preds = %5
  %10 = add i64 %4, %3
  %11 = tail call i64 @ggml_nbytes(ptr noundef nonnull %1)
  %.not14 = icmp ugt i64 %10, %11
  br i1 %.not14, label %12, label %13

12:                                               ; preds = %9
  tail call void (ptr, i32, ptr, ...) @ggml_abort(ptr noundef nonnull @.str, i32 noundef 245, ptr noundef nonnull @.str.1, ptr noundef nonnull @.str.6) #24
  unreachable

13:                                               ; preds = %9
  %14 = getelementptr inbounds nuw i8, ptr %0, i64 32
  %15 = load ptr, ptr %14, align 8, !tbaa !63
  %16 = icmp eq ptr %15, null
  br i1 %16, label %17, label %18

17:                                               ; preds = %13
  tail call void @ggml_backend_tensor_get(ptr noundef nonnull %1, ptr noundef %2, i64 noundef %3, i64 noundef %4)
  br label %19

18:                                               ; preds = %13
  tail call void %15(ptr noundef nonnull %0, ptr noundef nonnull %1, ptr noundef %2, i64 noundef %3, i64 noundef %4)
  br label %19

19:                                               ; preds = %18, %17
  ret void
}